; Function Attrs: mustprogress nounwind uwtable
define internal void @"_ZN4node13CallbackQueueIvJPNS_11EnvironmentEEE12CallbackImplIZNS_4quic7SessionD1EvE3$_1ED0Ev"(ptr noundef nonnull align 8 dereferenceable(32) %this) unnamed_addr #5 align 2 {
entry:
  %callback_.i = getelementptr inbounds i8, ptr %this, i64 24
  %callback_.val.i = load ptr, ptr %callback_.i, align 8
  %cmp.not.i.i.i = icmp eq ptr %callback_.val.i, null
  br i1 %cmp.not.i.i.i, label %"_ZZN4node4quic7SessionD1EvEN3$_1D2Ev.exit.i", label %if.then.i.i.i

if.then.i.i.i:                                    ; preds = %entry
  tail call void @_ZN4node10BaseObject17decrease_refcountEv(ptr noundef nonnull align 8 dereferenceable(32) %callback_.val.i) #28
  br label %"_ZZN4node4quic7SessionD1EvEN3$_1D2Ev.exit.i"

"_ZZN4node4quic7SessionD1EvEN3$_1D2Ev.exit.i":    ; preds = %if.then.i.i.i, %entry
  store ptr getelementptr inbounds ({ [5 x ptr] }, ptr @_ZTVN4node13CallbackQueueIvJPNS_11EnvironmentEEE8CallbackE, i64 0, i32 0, i64 2), ptr %this, align 8
  %next_.i.i = getelementptr inbounds i8, ptr %this, i64 16
  %0 = load ptr, ptr %next_.i.i, align 8
  %cmp.not.i.i1.i = icmp eq ptr %0, null
  br i1 %cmp.not.i.i1.i, label %"_ZN4node13CallbackQueueIvJPNS_11EnvironmentEEE12CallbackImplIZNS_4quic7SessionD1EvE3$_1ED2Ev.exit", label %_ZNKSt14default_deleteIN4node13CallbackQueueIvJPNS0_11EnvironmentEEE8CallbackEEclEPS5_.exit.i.i.i

_ZNKSt14default_deleteIN4node13CallbackQueueIvJPNS0_11EnvironmentEEE8CallbackEEclEPS5_.exit.i.i.i: ; preds = %"_ZZN4node4quic7SessionD1EvEN3$_1D2Ev.exit.i"
  %vtable.i.i.i.i = load ptr, ptr %0, align 8
  %vfn.i.i.i.i = getelementptr inbounds i8, ptr %vtable.i.i.i.i, i64 8
  %1 = load ptr, ptr %vfn.i.i.i.i, align 8
  tail call void %1(ptr noundef nonnull align 8 dereferenceable(24) %0) #28
  br label %"_ZN4node13CallbackQueueIvJPNS_11EnvironmentEEE12CallbackImplIZNS_4quic7SessionD1EvE3$_1ED2Ev.exit"

"_ZN4node13CallbackQueueIvJPNS_11EnvironmentEEE12CallbackImplIZNS_4quic7SessionD1EvE3$_1ED2Ev.exit": ; preds = %"_ZZN4node4quic7SessionD1EvEN3$_1D2Ev.exit.i", %_ZNKSt14default_deleteIN4node13CallbackQueueIvJPNS0_11EnvironmentEEE8CallbackEEclEPS5_.exit.i.i.i
  tail call void @_ZdlPv(ptr noundef nonnull %this) #33
  ret void
}